; Function Attrs: mustprogress uwtable
define noundef i32 @ucal_getTimeZoneDisplayName_75(ptr noundef %cal, i32 noundef %type, ptr noundef %locale, ptr noundef %result, i32 noundef %resultLength, ptr noundef %status) local_unnamed_addr #1 personality ptr @__gxx_personality_v0 {
entry:
  %id = alloca %"class.icu_75::UnicodeString", align 8
  %ref.tmp = alloca %"class.icu_75::Locale", align 8
  %ref.tmp11 = alloca %"class.icu_75::Locale", align 8
  %ref.tmp17 = alloca %"class.icu_75::Locale", align 8
  %ref.tmp23 = alloca %"class.icu_75::Locale", align 8
  %agg.tmp = alloca %"class.icu_75::Char16Ptr", align 8
  %0 = load i32, ptr %status, align 4
  %cmp.i = icmp slt i32 %0, 1
  br i1 %cmp.i, label %if.end, label %return

if.end:                                           ; preds = %entry
  %call1 = tail call noundef nonnull align 8 dereferenceable(72) ptr @_ZNK6icu_758Calendar11getTimeZoneEv(ptr noundef nonnull align 8 dereferenceable(618) %cal)
  store ptr getelementptr inbounds ({ [13 x ptr] }, ptr @_ZTVN6icu_7513UnicodeStringE, i64 0, i32 0, i64 2), ptr %id, align 8
  %fUnion2.i = getelementptr inbounds i8, ptr %id, i64 8
  store i16 2, ptr %fUnion2.i, align 8
  %cmp = icmp eq ptr %result, null
  %cmp2 = icmp eq i32 %resultLength, 0
  %or.cond = and i1 %cmp, %cmp2
  br i1 %or.cond, label %if.end5, label %if.then3

if.then3:                                         ; preds = %if.end
  %call4 = invoke noundef nonnull align 8 dereferenceable(64) ptr @_ZN6icu_7513UnicodeString5setToEPDsii(ptr noundef nonnull align 8 dereferenceable(64) %id, ptr noundef %result, i32 noundef 0, i32 noundef %resultLength)
          to label %if.end5 unwind label %lpad

lpad:                                             ; preds = %sw.bb22, %sw.bb16, %sw.bb10, %sw.bb, %if.then3
  %1 = landingpad { ptr, i32 }
          cleanup
  br label %ehcleanup

if.end5:                                          ; preds = %if.then3, %if.end
  switch i32 %type, label %sw.epilog [
    i32 0, label %sw.bb
    i32 1, label %sw.bb10
    i32 2, label %sw.bb16
    i32 3, label %sw.bb22
  ]

sw.bb:                                            ; preds = %if.end5
  invoke void @_ZN6icu_756LocaleC1EPKcS2_S2_S2_(ptr noundef nonnull align 8 dereferenceable(217) %ref.tmp, ptr noundef %locale, ptr noundef null, ptr noundef null, ptr noundef null)
          to label %invoke.cont6 unwind label %lpad

invoke.cont6:                                     ; preds = %sw.bb
  %call9 = invoke noundef nonnull align 8 dereferenceable(64) ptr @_ZNK6icu_758TimeZone14getDisplayNameEaNS0_12EDisplayTypeERKNS_6LocaleERNS_13UnicodeStringE(ptr noundef nonnull align 8 dereferenceable(72) %call1, i8 noundef signext 0, i32 noundef 2, ptr noundef nonnull align 8 dereferenceable(217) %ref.tmp, ptr noundef nonnull align 8 dereferenceable(64) %id)
          to label %sw.epilog.sink.split unwind label %lpad7

lpad7:                                            ; preds = %invoke.cont6
  %2 = landingpad { ptr, i32 }
          cleanup
  call void @_ZN6icu_756LocaleD1Ev(ptr noundef nonnull align 8 dereferenceable(217) %ref.tmp) #11
  br label %ehcleanup

sw.bb10:                                          ; preds = %if.end5
  invoke void @_ZN6icu_756LocaleC1EPKcS2_S2_S2_(ptr noundef nonnull align 8 dereferenceable(217) %ref.tmp11, ptr noundef %locale, ptr noundef null, ptr noundef null, ptr noundef null)
          to label %invoke.cont12 unwind label %lpad

invoke.cont12:                                    ; preds = %sw.bb10
  %call15 = invoke noundef nonnull align 8 dereferenceable(64) ptr @_ZNK6icu_758TimeZone14getDisplayNameEaNS0_12EDisplayTypeERKNS_6LocaleERNS_13UnicodeStringE(ptr noundef nonnull align 8 dereferenceable(72) %call1, i8 noundef signext 0, i32 noundef 1, ptr noundef nonnull align 8 dereferenceable(217) %ref.tmp11, ptr noundef nonnull align 8 dereferenceable(64) %id)
          to label %sw.epilog.sink.split unwind label %lpad13

lpad13:                                           ; preds = %invoke.cont12
  %3 = landingpad { ptr, i32 }
          cleanup
  call void @_ZN6icu_756LocaleD1Ev(ptr noundef nonnull align 8 dereferenceable(217) %ref.tmp11) #11
  br label %ehcleanup

sw.bb16:                                          ; preds = %if.end5
  invoke void @_ZN6icu_756LocaleC1EPKcS2_S2_S2_(ptr noundef nonnull align 8 dereferenceable(217) %ref.tmp17, ptr noundef %locale, ptr noundef null, ptr noundef null, ptr noundef null)
          to label %invoke.cont18 unwind label %lpad

invoke.cont18:                                    ; preds = %sw.bb16
  %call21 = invoke noundef nonnull align 8 dereferenceable(64) ptr @_ZNK6icu_758TimeZone14getDisplayNameEaNS0_12EDisplayTypeERKNS_6LocaleERNS_13UnicodeStringE(ptr noundef nonnull align 8 dereferenceable(72) %call1, i8 noundef signext 1, i32 noundef 2, ptr noundef nonnull align 8 dereferenceable(217) %ref.tmp17, ptr noundef nonnull align 8 dereferenceable(64) %id)
          to label %sw.epilog.sink.split unwind label %lpad19

lpad19:                                           ; preds = %invoke.cont18
  %4 = landingpad { ptr, i32 }
          cleanup
  call void @_ZN6icu_756LocaleD1Ev(ptr noundef nonnull align 8 dereferenceable(217) %ref.tmp17) #11
  br label %ehcleanup

sw.bb22:                                          ; preds = %if.end5
  invoke void @_ZN6icu_756LocaleC1EPKcS2_S2_S2_(ptr noundef nonnull align 8 dereferenceable(217) %ref.tmp23, ptr noundef %locale, ptr noundef null, ptr noundef null, ptr noundef null)
          to label %invoke.cont24 unwind label %lpad

invoke.cont24:                                    ; preds = %sw.bb22
  %call27 = invoke noundef nonnull align 8 dereferenceable(64) ptr @_ZNK6icu_758TimeZone14getDisplayNameEaNS0_12EDisplayTypeERKNS_6LocaleERNS_13UnicodeStringE(ptr noundef nonnull align 8 dereferenceable(72) %call1, i8 noundef signext 1, i32 noundef 1, ptr noundef nonnull align 8 dereferenceable(217) %ref.tmp23, ptr noundef nonnull align 8 dereferenceable(64) %id)
          to label %sw.epilog.sink.split unwind label %lpad25

lpad25:                                           ; preds = %invoke.cont24
  %5 = landingpad { ptr, i32 }
          cleanup
  call void @_ZN6icu_756LocaleD1Ev(ptr noundef nonnull align 8 dereferenceable(217) %ref.tmp23) #11
  br label %ehcleanup

sw.epilog.sink.split:                             ; preds = %invoke.cont24, %invoke.cont18, %invoke.cont12, %invoke.cont6
  %ref.tmp23.sink = phi ptr [ %ref.tmp, %invoke.cont6 ], [ %ref.tmp11, %invoke.cont12 ], [ %ref.tmp17, %invoke.cont18 ], [ %ref.tmp23, %invoke.cont24 ]
  call void @_ZN6icu_756LocaleD1Ev(ptr noundef nonnull align 8 dereferenceable(217) %ref.tmp23.sink) #11
  br label %sw.epilog

sw.epilog:                                        ; preds = %sw.epilog.sink.split, %if.end5
  store ptr %result, ptr %agg.tmp, align 8
  %call31 = invoke noundef i32 @_ZNK6icu_7513UnicodeString7extractENS_9Char16PtrEiR10UErrorCode(ptr noundef nonnull align 8 dereferenceable(64) %id, ptr noundef nonnull %agg.tmp, i32 noundef %resultLength, ptr noundef nonnull align 4 dereferenceable(4) %status)
          to label %invoke.cont30 unwind label %lpad29

invoke.cont30:                                    ; preds = %sw.epilog
  %6 = load ptr, ptr %agg.tmp, align 8
  call void asm sideeffect "", "rm,~{memory},~{dirflag},~{fpsr},~{flags}"(ptr %6) #11, !srcloc !4
  call void @_ZN6icu_7513UnicodeStringD1Ev(ptr noundef nonnull align 8 dereferenceable(64) %id) #11
  br label %return

lpad29:                                           ; preds = %sw.epilog
  %7 = landingpad { ptr, i32 }
          cleanup
  %8 = load ptr, ptr %agg.tmp, align 8
  call void asm sideeffect "", "rm,~{memory},~{dirflag},~{fpsr},~{flags}"(ptr %8) #11, !srcloc !4
  br label %ehcleanup

ehcleanup:                                        ; preds = %lpad29, %lpad25, %lpad19, %lpad13, %lpad7, %lpad
  %.pn = phi { ptr, i32 } [ %7, %lpad29 ], [ %5, %lpad25 ], [ %1, %lpad ], [ %4, %lpad19 ], [ %3, %lpad13 ], [ %2, %lpad7 ]
  call void @_ZN6icu_7513UnicodeStringD1Ev(ptr noundef nonnull align 8 dereferenceable(64) %id) #11
  resume { ptr, i32 } %.pn

return:                                           ; preds = %entry, %invoke.cont30
  %retval.0 = phi i32 [ %call31, %invoke.cont30 ], [ -1, %entry ]
  ret i32 %retval.0
}